; ModuleID = '46/793.c'
source_filename = "46/793.c"
target datalayout = "e-m:e-p270:32:32-p271:32:32-p272:64:64-i64:64-f80:128-n8:16:32:64-S128"
target triple = "x86_64-pc-linux-gnu"

@.str = private unnamed_addr constant [5 x i8] c"%d%d\00", align 1
@.str.1 = private unnamed_addr constant [3 x i8] c"%d\00", align 1
@.str.2 = private unnamed_addr constant [4 x i8] c"%d\0A\00", align 1

; Function Attrs: noinline nounwind uwtable
define dso_local i32 @main() #0 {
  %1 = alloca i32, align 4
  %2 = alloca i32, align 4
  %3 = alloca i32, align 4
  %4 = alloca [100 x [100 x i32]], align 16
  %5 = alloca i32, align 4
  %6 = alloca i32, align 4
  %7 = alloca i32, align 4
  %8 = alloca i32, align 4
  %9 = alloca i32, align 4
  %10 = alloca i32, align 4
  %11 = alloca i32, align 4
  %12 = alloca i32, align 4
  %13 = alloca i32, align 4
  store i32 0, i32* %1, align 4
  %14 = bitcast [100 x [100 x i32]]* %4 to i8*
  call void @llvm.memset.p0i8.i64(i8* align 16 %14, i8 0, i64 40000, i1 false)
  store i32 0, i32* %5, align 4
  store i32 0, i32* %7, align 4
  store i32 0, i32* %8, align 4
  store i32 0, i32* %9, align 4
  store i32 0, i32* %11, align 4
  store i32 0, i32* %13, align 4
  %15 = call i32 (i8*, ...) @__isoc99_scanf(i8* getelementptr inbounds ([5 x i8], [5 x i8]* @.str, i64 0, i64 0), i32* %10, i32* %12)
  store i32 0, i32* %2, align 4
  br label %16

16:                                               ; preds = %39, %0
  %17 = load i32, i32* %2, align 4
  %18 = load i32, i32* %10, align 4
  %19 = icmp slt i32 %17, %18
  br i1 %19, label %20, label %42

20:                                               ; preds = %16
  store i32 0, i32* %3, align 4
  br label %21

21:                                               ; preds = %35, %20
  %22 = load i32, i32* %3, align 4
  %23 = load i32, i32* %12, align 4
  %24 = icmp slt i32 %22, %23
  br i1 %24, label %25, label %38

25:                                               ; preds = %21
  %26 = load i32, i32* %2, align 4
  %27 = sext i32 %26 to i64
  %28 = getelementptr inbounds [100 x [100 x i32]], [100 x [100 x i32]]* %4, i64 0, i64 %27
  %29 = load i32, i32* %3, align 4
  %30 = sext i32 %29 to i64
  %31 = getelementptr inbounds [100 x i32], [100 x i32]* %28, i64 0, i64 %30
  %32 = call i32 (i8*, ...) @__isoc99_scanf(i8* getelementptr inbounds ([3 x i8], [3 x i8]* @.str.1, i64 0, i64 0), i32* %31)
  %33 = load i32, i32* %7, align 4
  %34 = add nsw i32 %33, 1
  store i32 %34, i32* %7, align 4
  br label %35

35:                                               ; preds = %25
  %36 = load i32, i32* %3, align 4
  %37 = add nsw i32 %36, 1
  store i32 %37, i32* %3, align 4
  br label %21

38:                                               ; preds = %21
  br label %39

39:                                               ; preds = %38
  %40 = load i32, i32* %2, align 4
  %41 = add nsw i32 %40, 1
  store i32 %41, i32* %2, align 4
  br label %16

42:                                               ; preds = %16
  store i32 0, i32* %6, align 4
  br label %43

43:                                               ; preds = %165, %42
  %44 = load i32, i32* %6, align 4
  %45 = icmp sle i32 %44, 10000
  br i1 %45, label %46, label %168

46:                                               ; preds = %43
  %47 = load i32, i32* %13, align 4
  store i32 %47, i32* %9, align 4
  br label %48

48:                                               ; preds = %68, %46
  %49 = load i32, i32* %9, align 4
  %50 = load i32, i32* %12, align 4
  %51 = icmp slt i32 %49, %50
  br i1 %51, label %52, label %71

52:                                               ; preds = %48
  %53 = load i32, i32* %8, align 4
  %54 = sext i32 %53 to i64
  %55 = getelementptr inbounds [100 x [100 x i32]], [100 x [100 x i32]]* %4, i64 0, i64 %54
  %56 = load i32, i32* %9, align 4
  %57 = sext i32 %56 to i64
  %58 = getelementptr inbounds [100 x i32], [100 x i32]* %55, i64 0, i64 %57
  %59 = load i32, i32* %58, align 4
  %60 = call i32 (i8*, ...) @printf(i8* getelementptr inbounds ([4 x i8], [4 x i8]* @.str.2, i64 0, i64 0), i32 %59)
  %61 = load i32, i32* %5, align 4
  %62 = add nsw i32 %61, 1
  store i32 %62, i32* %5, align 4
  %63 = load i32, i32* %5, align 4
  %64 = load i32, i32* %7, align 4
  %65 = icmp eq i32 %63, %64
  br i1 %65, label %66, label %67

66:                                               ; preds = %52
  store i32 0, i32* %1, align 4
  br label %168

67:                                               ; preds = %52
  br label %68

68:                                               ; preds = %67
  %69 = load i32, i32* %9, align 4
  %70 = add nsw i32 %69, 1
  store i32 %70, i32* %9, align 4
  br label %48

71:                                               ; preds = %48
  %72 = load i32, i32* %12, align 4
  %73 = sub nsw i32 %72, 1
  store i32 %73, i32* %12, align 4
  %74 = load i32, i32* %9, align 4
  %75 = sub nsw i32 %74, 1
  store i32 %75, i32* %9, align 4
  %76 = load i32, i32* %11, align 4
  %77 = add nsw i32 %76, 1
  store i32 %77, i32* %11, align 4
  %78 = load i32, i32* %11, align 4
  store i32 %78, i32* %8, align 4
  br label %79

79:                                               ; preds = %99, %71
  %80 = load i32, i32* %8, align 4
  %81 = load i32, i32* %10, align 4
  %82 = icmp slt i32 %80, %81
  br i1 %82, label %83, label %102

83:                                               ; preds = %79
  %84 = load i32, i32* %8, align 4
  %85 = sext i32 %84 to i64
  %86 = getelementptr inbounds [100 x [100 x i32]], [100 x [100 x i32]]* %4, i64 0, i64 %85
  %87 = load i32, i32* %9, align 4
  %88 = sext i32 %87 to i64
  %89 = getelementptr inbounds [100 x i32], [100 x i32]* %86, i64 0, i64 %88
  %90 = load i32, i32* %89, align 4
  %91 = call i32 (i8*, ...) @printf(i8* getelementptr inbounds ([4 x i8], [4 x i8]* @.str.2, i64 0, i64 0), i32 %90)
  %92 = load i32, i32* %5, align 4
  %93 = add nsw i32 %92, 1
  store i32 %93, i32* %5, align 4
  %94 = load i32, i32* %5, align 4
  %95 = load i32, i32* %7, align 4
  %96 = icmp eq i32 %94, %95
  br i1 %96, label %97, label %98

97:                                               ; preds = %83
  store i32 0, i32* %1, align 4
  br label %168

98:                                               ; preds = %83
  br label %99

99:                                               ; preds = %98
  %100 = load i32, i32* %8, align 4
  %101 = add nsw i32 %100, 1
  store i32 %101, i32* %8, align 4
  br label %79

102:                                              ; preds = %79
  %103 = load i32, i32* %10, align 4
  %104 = sub nsw i32 %103, 1
  store i32 %104, i32* %10, align 4
  %105 = load i32, i32* %8, align 4
  %106 = sub nsw i32 %105, 1
  store i32 %106, i32* %8, align 4
  %107 = load i32, i32* %12, align 4
  %108 = sub nsw i32 %107, 1
  store i32 %108, i32* %9, align 4
  br label %109

109:                                              ; preds = %129, %102
  %110 = load i32, i32* %9, align 4
  %111 = load i32, i32* %13, align 4
  %112 = icmp sge i32 %110, %111
  br i1 %112, label %113, label %132

113:                                              ; preds = %109
  %114 = load i32, i32* %8, align 4
  %115 = sext i32 %114 to i64
  %116 = getelementptr inbounds [100 x [100 x i32]], [100 x [100 x i32]]* %4, i64 0, i64 %115
  %117 = load i32, i32* %9, align 4
  %118 = sext i32 %117 to i64
  %119 = getelementptr inbounds [100 x i32], [100 x i32]* %116, i64 0, i64 %118
  %120 = load i32, i32* %119, align 4
  %121 = call i32 (i8*, ...) @printf(i8* getelementptr inbounds ([4 x i8], [4 x i8]* @.str.2, i64 0, i64 0), i32 %120)
  %122 = load i32, i32* %5, align 4
  %123 = add nsw i32 %122, 1
  store i32 %123, i32* %5, align 4
  %124 = load i32, i32* %5, align 4
  %125 = load i32, i32* %7, align 4
  %126 = icmp eq i32 %124, %125
  br i1 %126, label %127, label %128

127:                                              ; preds = %113
  store i32 0, i32* %1, align 4
  br label %168

128:                                              ; preds = %113
  br label %129

129:                                              ; preds = %128
  %130 = load i32, i32* %9, align 4
  %131 = add nsw i32 %130, -1
  store i32 %131, i32* %9, align 4
  br label %109

132:                                              ; preds = %109
  %133 = load i32, i32* %9, align 4
  %134 = add nsw i32 %133, 1
  store i32 %134, i32* %9, align 4
  %135 = load i32, i32* %10, align 4
  %136 = sub nsw i32 %135, 1
  store i32 %136, i32* %8, align 4
  br label %137

137:                                              ; preds = %157, %132
  %138 = load i32, i32* %8, align 4
  %139 = load i32, i32* %11, align 4
  %140 = icmp sge i32 %138, %139
  br i1 %140, label %141, label %160

141:                                              ; preds = %137
  %142 = load i32, i32* %8, align 4
  %143 = sext i32 %142 to i64
  %144 = getelementptr inbounds [100 x [100 x i32]], [100 x [100 x i32]]* %4, i64 0, i64 %143
  %145 = load i32, i32* %9, align 4
  %146 = sext i32 %145 to i64
  %147 = getelementptr inbounds [100 x i32], [100 x i32]* %144, i64 0, i64 %146
  %148 = load i32, i32* %147, align 4
  %149 = call i32 (i8*, ...) @printf(i8* getelementptr inbounds ([4 x i8], [4 x i8]* @.str.2, i64 0, i64 0), i32 %148)
  %150 = load i32, i32* %5, align 4
  %151 = add nsw i32 %150, 1
  store i32 %151, i32* %5, align 4
  %152 = load i32, i32* %5, align 4
  %153 = load i32, i32* %7, align 4
  %154 = icmp eq i32 %152, %153
  br i1 %154, label %155, label %156

155:                                              ; preds = %141
  store i32 0, i32* %1, align 4
  br label %168

156:                                              ; preds = %141
  br label %157

157:                                              ; preds = %156
  %158 = load i32, i32* %8, align 4
  %159 = add nsw i32 %158, -1
  store i32 %159, i32* %8, align 4
  br label %137

160:                                              ; preds = %137
  %161 = load i32, i32* %8, align 4
  %162 = add nsw i32 %161, 1
  store i32 %162, i32* %8, align 4
  %163 = load i32, i32* %13, align 4
  %164 = add nsw i32 %163, 1
  store i32 %164, i32* %13, align 4
  br label %165

165:                                              ; preds = %160
  %166 = load i32, i32* %6, align 4
  %167 = add nsw i32 %166, 1
  store i32 %167, i32* %6, align 4
  br label %43

168:                                              ; preds = %66, %97, %127, %155, %43
  %169 = load i32, i32* %1, align 4
  ret i32 %169
}

; Function Attrs: argmemonly nounwind willreturn
declare void @llvm.memset.p0i8.i64(i8* nocapture writeonly, i8, i64, i1 immarg) #1

declare dso_local i32 @__isoc99_scanf(i8*, ...) #2

declare dso_local i32 @printf(i8*, ...) #2


!llvm.module.flags = !{!0}
!llvm.ident = !{!1}

!0 = !{i32 1, !"wchar_size", i32 4}
!1 = !{!"clang version 10.0.0-4ubuntu1 "}
